Certificate:
    Data:
        Version: 1 (0x0)
        Serial Number:
            50:64:43:39:1c:ee:8b:9b:93:83:51:17:68:c0:09:08:5b:db:5a:c3
        Signature Algorithm: NULL
        Issuer: CN = root.some-name-pgbouncer
        Validity
            Not Before: Nov 18 22:39:36 2021 GMT
            Not After : Nov 16 22:39:36 2031 GMT
        Subject: CN = root.some-name-pgbouncer
        Subject Public Key Info:
            Public Key Algorithm: rsaEncryption
                RSA Public-Key: (2048 bit)
                Modulus:
                    00:9a:0e:a8:90:1f:a6:78:ea:77:c5:ff:66:68:32:
                    fd:44:7d:01:46:f9:1a:18:e8:a5:fd:76:e5:35:25:
                    a9:c5:31:48:fb:c2:73:f4:da:05:3d:43:b0:53:6b:
                    e3:40:e1:46:e2:2e:9b:be:17:8d:ed:c6:15:63:e6:
                    c9:22:c3:d5:c8:56:99:df:5e:83:b7:ba:5d:e9:c3:
                    92:37:40:c7:b3:0c:ca:c9:18:10:77:f0:b8:68:8e:
                    5c:4d:5d:26:d1:6f:41:ec:67:88:56:84:eb:60:46:
                    a0:8d:9a:63:aa:f3:17:6b:2e:e4:c4:d7:36:39:ce:
                    ac:c5:d2:b3:b7:1e:92:2e:7a:84:0f:9e:0e:f1:a3:
                    34:ac:92:37:ad:92:87:10:39:8f:f8:10:e1:6a:a5:
                    41:42:67:50:83:f6:aa:48:db:46:97:f0:f7:72:94:
                    b0:14:07:54:4d:c8:bf:c1:90:f8:ca:73:e5:2d:fd:
                    6d:2f:d6:b9:2f:d2:6e:de:c1:6f:fa:e5:ca:3f:eb:
                    dd:2b:4c:1e:51:d5:10:d0:e8:51:78:b6:86:15:c3:
                    da:00:e7:bd:be:8f:cc:2b:3e:4f:de:d8:9c:82:1d:
                    a5:f7:17:f8:3e:3f:07:0d:83:7e:85:56:e2:70:19:
                    f0:aa:c8:ec:17:f2:ac:4f:8d:aa:11:4e:66:53:81:
                    e2:55
                Exponent: 65537 (0x10001)
    Signature Algorithm: NULL
-----BEGIN CERTIFICATE-----
MIIDJzCCAg+gAwIBAgIUUGRDORzui5uTg1EXaMAJCFvbWsMwDQYJKoZIhvcNAQEL
BQAwIzEhMB8GA1UEAwwYcm9vdC5zb21lLW5hbWUtcGdib3VuY2VyMB4XDTIxMTEx
ODIyMzkzNloXDTMxMTExNjIyMzkzNlowIzEhMB8GA1UEAwwYcm9vdC5zb21lLW5h
bWUtcGdib3VuY2VyMIIBIjANBgkqhkiG9w0BAQEFAAOCAQ8AMIIBCgKCAQEAmg6o
kB+meOp3xf9maDL9RH0BRvkaGOil/XblNSWpxTFI+8Jz9NoFPUOwU2vjQOFG4i6b
vheN7cYVY+bJIsPVyFaZ316Dt7pd6cOSN0DHswzKyRgQd/C4aI5cTV0m0W9B7GeI
VoTrYEagjZpjqvMXay7kxNc2Oc6sxdKztx6SLnqED54O8aM0rJI3rZKHEDmP+BDh
aqVBQmdQg/aqSNtGl/D3cpSwFAdUTci/wZD4ynPlLf1tL9a5L9Ju3sFv+uXKP+vd
K0weUdUQ0OhReLaGFcPaAOe9vo/MKz5P3ticgh2l9xf4Pj8HDYN+hVbicBnwqsjs
F/KsT42qEU5mU4HiVQIDAQABo1MwUTAdBgNVHQ4EFgQUoUgoS6WYfkCa4YVxqbYw
LrTPyXAwHwYDVR0jBBgwFoAUoUgoS6WYfkCa4YVxqbYwLrTPyXAwDwYDVR0TAQH/
BAUwAwEB/zANBgkqhkiG9w0BAQsFAAOCAQEAduyM8VWF67bBshcsPgFeDg6M2Z5n
NLsvzyLB+zsfLqgkTo8oAcwsQ5KfKKMZSd2iIp9Zt3eTEG/F4ypctxWIGqGnfCl3
nBtzNLtcmHnhpiPTTkirpJPsM4KIOsudBl0HHKhWcTyEDz0PFK2K3M+VieaP22XE
WvEVzMd5eWhBNe4dsHGu8dp/OIgjSkgZjew5am516bMER7Q8Y13ZfdCsZnOFH+aL
Df8ZB5vejD8nqBMkliV9c9XVBc8bXOIhcNUhqIEFiGBHyq4SPo+FQqz00W2QivhN
hY6ZjfoBgLL3ouYVxfdRwemwgb+6buLxw4fmawOjXlYSjGMMpKGknDZCgg==
-----END CERTIFICATE-----
