Certificate:
    Data:
        Version: 1 (0x0)
        Serial Number:
            5b:49:7c:3c:e3:4e:be:66:5a:14:11:4f:70:5a:2d:29:7d:af:ba:2e
        Signature Algorithm: NULL
        Issuer: C = US, ST = Washington, L = Seattle, O = Percona, OU = Professional Services, CN = some-name-pgbouncer, emailAddress = slava.sarzhan@percona.com
        Validity
            Not Before: Nov 18 22:39:50 2021 GMT
            Not After : Nov 18 22:39:50 2022 GMT
        Subject: C = US, ST = Washington, L = Seattle, O = Percona, OU = Professional Services, CN = some-name-pgbouncer, emailAddress = slava.sarzhan@percona.com
        Subject Public Key Info:
            Public Key Algorithm: rsaEncryption
                RSA Public-Key: (2048 bit)
                Modulus:
                    00:cf:1b:61:50:01:16:53:d0:03:0e:a5:e4:47:f0:
                    57:ef:95:99:7d:c4:b3:93:3e:b0:c5:2d:cc:6e:7a:
                    f8:bb:89:d8:2b:04:b5:85:bf:20:8f:f3:46:8c:38:
                    f1:c4:24:a9:cc:bf:db:15:59:b9:69:39:ae:c9:01:
                    f7:78:82:b0:f1:d3:8f:cb:47:49:a0:c2:ef:b9:4a:
                    d6:8a:ce:80:f4:3f:ca:a3:86:1f:d4:c0:39:ad:95:
                    fd:5f:a3:78:01:3c:84:a5:b3:10:0c:da:52:7b:5b:
                    0f:69:17:cf:04:3e:d3:e6:b9:96:e1:bc:e8:2a:f4:
                    dc:74:4c:96:d4:36:f9:f4:73:26:cc:c8:bf:9d:2c:
                    c1:20:42:28:18:f0:4d:7d:dc:e6:7f:e8:d4:d6:d4:
                    a7:d3:4a:64:4c:46:2f:7b:6d:26:d6:ba:9e:d9:31:
                    f8:02:2b:5d:2b:08:b0:f7:69:18:49:ed:92:fc:fe:
                    3d:89:da:d9:7a:fb:a0:9e:36:9a:3f:53:c3:8d:2f:
                    64:ec:20:4c:96:a3:10:84:f7:e6:ca:54:09:ca:bd:
                    72:46:b4:07:43:1c:ea:02:33:dc:b1:ed:3c:bd:7c:
                    b5:81:e6:98:d5:77:9d:cb:6a:ae:9e:b3:ed:e2:b1:
                    10:2a:3c:a7:ef:4e:90:90:8a:0d:18:65:58:97:2b:
                    4c:9d
                Exponent: 65537 (0x10001)
    Signature Algorithm: NULL
-----BEGIN CERTIFICATE-----
MIIDWTCCAkECFFEyGJmkfAHYmbRerlyFbPwvSPZ6MA0GCSqGSIb3DQEBCwUAMCMx
ITAfBgNVBAMMGHJvb3Quc29tZS1uYW1lLXBnYm91bmNlcjAeFw0yMTExMTgyMjM5
NTBaFw0yMjExMTgyMjM5NTBaMIGuMQswCQYDVQQGEwJVUzETMBEGA1UECAwKV2Fz
aGluZ3RvbjEQMA4GA1UEBwwHU2VhdHRsZTEQMA4GA1UECgwHUGVyY29uYTEeMBwG
A1UECwwVUHJvZmVzc2lvbmFsIFNlcnZpY2VzMRwwGgYDVQQDDBNzb21lLW5hbWUt
cGdib3VuY2VyMSgwJgYJKoZIhvcNAQkBFhlzbGF2YS5zYXJ6aGFuQHBlcmNvbmEu
Y29tMIIBIjANBgkqhkiG9w0BAQEFAAOCAQ8AMIIBCgKCAQEAzxthUAEWU9ADDqXk
R/BX75WZfcSzkz6wxS3Mbnr4u4nYKwS1hb8gj/NGjDjxxCSpzL/bFVm5aTmuyQH3
eIKw8dOPy0dJoMLvuUrWis6A9D/Ko4Yf1MA5rZX9X6N4ATyEpbMQDNpSe1sPaRfP
BD7T5rmW4bzoKvTcdEyW1Db59HMmzMi/nSzBIEIoGPBNfdzmf+jU1tSn00pkTEYv
e20m1rqe2TH4AitdKwiw92kYSe2S/P49idrZevugnjaaP1PDjS9k7CBMlqMQhPfm
ylQJyr1yRrQHQxzqAjPcse08vXy1geaY1Xedy2qunrPt4rEQKjyn706QkIoNGGVY
lytMnQIDAQABMA0GCSqGSIb3DQEBCwUAA4IBAQAzOxgOSGC5gkZuazHeoL6YpjTP
y67EnDRvXGtATvha2nqWUBBagOWYPH9vTPy+MUNNxgzdp90QI5xuifDFuktmBlgr
xZ7NWIWblS+kkL+WsZgoRaaY4Jxx4KQWv89DzZNHfFJtAECxP92/xDAM7cdJ7Ajd
p7u35n09d1NkjUoGCm4JH8FSEGrxUJcQX/2A5vQyj74xQ2YmrsD1OyE2vqkEciJ+
C4EdtG+mwGp08wTfrGDqopahhPtP2hbix2q0AE8WsOdd/nSn/KDrF8hH4Af50uye
UcnM+hq0fs6QCVnrhJRtUz/1PsOkWahfKtl//5ed6y90riT4bb9flcHbIOqu
-----END CERTIFICATE-----
